; Function Attrs: mustprogress nounwind uwtable
define hidden void @_ZN19VM_ShenandoahFullGC4doitEv(ptr nocapture noundef nonnull readonly align 8 dereferenceable(32) %0) unnamed_addr #1 align 2 {
  %2 = alloca %class.ShenandoahGCPauseMark, align 8
  %3 = getelementptr inbounds i8, ptr %0, i64 16
  %4 = load i32, ptr %3, align 8
  call void @_ZN21ShenandoahGCPauseMarkC1EjPKcN11SvcGCMarker11reason_typeE(ptr noundef nonnull align 8 dereferenceable(48) %2, i32 noundef %4, ptr noundef nonnull @.str.5, i32 noundef 1) #5
  %5 = getelementptr inbounds i8, ptr %0, i64 24
  %6 = load ptr, ptr %5, align 8
  %7 = getelementptr inbounds i8, ptr %0, i64 20
  %8 = load i32, ptr %7, align 4
  call void @_ZN16ShenandoahFullGC10entry_fullEN7GCCause5CauseE(ptr noundef nonnull align 8 dereferenceable(24) %6, i32 noundef %8) #5
  %9 = load ptr, ptr @_ZN8Universe14_collectedHeapE, align 8
  call void @_ZN14ShenandoahHeap34propagate_gc_state_to_java_threadsEv(ptr noundef nonnull align 8 dereferenceable(2657) %9) #5
  %10 = getelementptr inbounds i8, ptr %2, i64 16
  call void @_ZN23TraceMemoryManagerStatsD1Ev(ptr noundef nonnull align 8 dereferenceable(32) %10) #5
  %11 = getelementptr inbounds i8, ptr %2, i64 14
  call void @_ZN17IsSTWGCActiveMarkD1Ev(ptr noundef nonnull align 1 dereferenceable(1) %11) #5
  call void @_ZN15VM_GC_Operation13notify_gc_endEv() #5
  %12 = getelementptr inbounds i8, ptr %2, i64 13
  call void @_ZN13JvmtiGCMarkerD1Ev(ptr noundef nonnull align 1 dereferenceable(1) %12) #5
  %13 = getelementptr inbounds i8, ptr %2, i64 8
  call void @_ZN8GCIdMarkD1Ev(ptr noundef nonnull align 4 dereferenceable(4) %13) #5
  ret void
}